target datalayout = "e-m:e-p270:32:32-p271:32:32-p272:64:64-i64:64-i128:128-f80:128-n8:16:32:64-S128"
target triple = "x86_64-pc-linux-gnu"

%struct.test_fixture = type { ptr, ptr, ptr, i32, i32, ptr }

@server_cert = internal global ptr null, align 8
@.str.14 = private unnamed_addr constant [34 x i8] c"../openssl/test/cmp_client_test.c\00", align 1
@.str.34 = private unnamed_addr constant [17 x i8] c"test_exec_IR_ses\00", align 1

; Function Attrs: nounwind uwtable
define internal void @tear_down(ptr noundef %0) #0 {
  %2 = alloca ptr, align 8
  store ptr %0, ptr %2, align 8, !tbaa !17
  %3 = load ptr, ptr %2, align 8, !tbaa !17
  %4 = getelementptr inbounds nuw %struct.test_fixture, ptr %3, i32 0, i32 1
  %5 = load ptr, ptr %4, align 8, !tbaa !29
  call void @OSSL_CMP_CTX_free(ptr noundef %5)
  %6 = load ptr, ptr %2, align 8, !tbaa !17
  %7 = getelementptr inbounds nuw %struct.test_fixture, ptr %6, i32 0, i32 2
  %8 = load ptr, ptr %7, align 8, !tbaa !21
  call void @ossl_cmp_mock_srv_free(ptr noundef %8)
  %9 = load ptr, ptr %2, align 8, !tbaa !17
  %10 = getelementptr inbounds nuw %struct.test_fixture, ptr %9, i32 0, i32 5
  %11 = load ptr, ptr %10, align 8, !tbaa !28
  %12 = call ptr @ossl_check_X509_sk_type(ptr noundef %11)
  call void @OPENSSL_sk_free(ptr noundef %12)
  %13 = load ptr, ptr %2, align 8, !tbaa !17
  call void @CRYPTO_free(ptr noundef %13, ptr noundef @.str.14, i32 noundef 51)
  ret void
}

; Function Attrs: inlinehint nounwind uwtable
define internal ptr @ossl_check_X509_type(ptr noundef %0) #3 {
  %2 = alloca ptr, align 8
  store ptr %0, ptr %2, align 8, !tbaa !4
  %3 = load ptr, ptr %2, align 8, !tbaa !4
  ret ptr %3
}

; Function Attrs: inlinehint nounwind uwtable
define internal ptr @ossl_check_X509_sk_type(ptr noundef %0) #3 {
  %2 = alloca ptr, align 8
  store ptr %0, ptr %2, align 8, !tbaa !32
  %3 = load ptr, ptr %2, align 8, !tbaa !32
  ret ptr %3
}

; Function Attrs: nounwind uwtable
define internal i32 @test_exec_IR_ses() #0 {
  %1 = alloca i32, align 4
  %2 = alloca ptr, align 8
  %3 = alloca i32, align 4
  %4 = alloca i32, align 4
  call void @llvm.lifetime.start.p0(i64 8, ptr %2) #4
  %5 = call ptr @set_up(ptr noundef @.str.34)
  store ptr %5, ptr %2, align 8, !tbaa !17
  call void @llvm.lifetime.start.p0(i64 4, ptr %3) #4
  store i32 0, ptr %3, align 4, !tbaa !19
  %6 = load ptr, ptr %2, align 8, !tbaa !17
  %7 = icmp eq ptr %6, null
  br i1 %7, label %8, label %9

8:                                                ; preds = %0
  store i32 0, ptr %1, align 4
  store i32 1, ptr %4, align 4
  br label %52

9:                                                ; preds = %0
  %10 = load ptr, ptr %2, align 8, !tbaa !17
  %11 = getelementptr inbounds nuw %struct.test_fixture, ptr %10, i32 0, i32 3
  store i32 0, ptr %11, align 8, !tbaa !27
  %12 = load ptr, ptr %2, align 8, !tbaa !17
  %13 = getelementptr inbounds nuw %struct.test_fixture, ptr %12, i32 0, i32 4
  store i32 0, ptr %13, align 4, !tbaa !26
  %14 = call ptr @OPENSSL_sk_new_null()
  %15 = load ptr, ptr %2, align 8, !tbaa !17
  %16 = getelementptr inbounds nuw %struct.test_fixture, ptr %15, i32 0, i32 5
  store ptr %14, ptr %16, align 8, !tbaa !28
  %17 = load ptr, ptr %2, align 8, !tbaa !17
  %18 = getelementptr inbounds nuw %struct.test_fixture, ptr %17, i32 0, i32 5
  %19 = load ptr, ptr %18, align 8, !tbaa !28
  %20 = call ptr @ossl_check_X509_sk_type(ptr noundef %19)
  %21 = load ptr, ptr @server_cert, align 8, !tbaa !4
  %22 = call ptr @ossl_check_X509_type(ptr noundef %21)
  %23 = call i32 @OPENSSL_sk_push(ptr noundef %20, ptr noundef %22)
  %24 = icmp ne i32 %23, 0
  br i1 %24, label %25, label %34

25:                                               ; preds = %9
  %26 = load ptr, ptr %2, align 8, !tbaa !17
  %27 = getelementptr inbounds nuw %struct.test_fixture, ptr %26, i32 0, i32 5
  %28 = load ptr, ptr %27, align 8, !tbaa !28
  %29 = call ptr @ossl_check_X509_sk_type(ptr noundef %28)
  %30 = load ptr, ptr @server_cert, align 8, !tbaa !4
  %31 = call ptr @ossl_check_X509_type(ptr noundef %30)
  %32 = call i32 @OPENSSL_sk_push(ptr noundef %29, ptr noundef %31)
  %33 = icmp ne i32 %32, 0
  br i1 %33, label %36, label %34

34:                                               ; preds = %25, %9
  %35 = load ptr, ptr %2, align 8, !tbaa !17
  call void @tear_down(ptr noundef %35)
  store i32 0, ptr %1, align 4
  store i32 1, ptr %4, align 4
  br label %52

36:                                               ; preds = %25
  %37 = load ptr, ptr %2, align 8, !tbaa !17
  %38 = getelementptr inbounds nuw %struct.test_fixture, ptr %37, i32 0, i32 2
  %39 = load ptr, ptr %38, align 8, !tbaa !21
  %40 = load ptr, ptr %2, align 8, !tbaa !17
  %41 = getelementptr inbounds nuw %struct.test_fixture, ptr %40, i32 0, i32 5
  %42 = load ptr, ptr %41, align 8, !tbaa !28
  %43 = call i32 @ossl_cmp_mock_srv_set1_caPubsOut(ptr noundef %39, ptr noundef %42)
  %44 = load ptr, ptr %2, align 8, !tbaa !17
  %45 = icmp ne ptr %44, null
  br i1 %45, label %46, label %50

46:                                               ; preds = %36
  %47 = load ptr, ptr %2, align 8, !tbaa !17
  %48 = call i32 @execute_exec_certrequest_ses_test(ptr noundef %47)
  store i32 %48, ptr %3, align 4, !tbaa !19
  %49 = load ptr, ptr %2, align 8, !tbaa !17
  call void @tear_down(ptr noundef %49)
  br label %50

50:                                               ; preds = %46, %36
  %51 = load i32, ptr %3, align 4, !tbaa !19
  store i32 %51, ptr %1, align 4
  store i32 1, ptr %4, align 4
  br label %52

52:                                               ; preds = %50, %34, %8
  call void @llvm.lifetime.end.p0(i64 4, ptr %3) #4
  call void @llvm.lifetime.end.p0(i64 8, ptr %2) #4
  %53 = load i32, ptr %1, align 4
  ret i32 %53
}