; Function Attrs: nounwind uwtable
define internal i32 @test_exec_IR_ses() #0 {
  %1 = tail call fastcc ptr @set_up(ptr noundef nonnull @.str.34)
  %2 = icmp eq ptr %1, null
  br i1 %2, label %27, label %3

3:                                                ; preds = %0
  %4 = getelementptr inbounds nuw i8, ptr %1, i64 24
  store i32 0, ptr %4, align 8, !tbaa !26
  %5 = getelementptr inbounds nuw i8, ptr %1, i64 28
  store i32 0, ptr %5, align 4, !tbaa !17
  %6 = tail call ptr @OPENSSL_sk_new_null() #4
  %7 = getelementptr inbounds nuw i8, ptr %1, i64 32
  store ptr %6, ptr %7, align 8, !tbaa !25
  %8 = load ptr, ptr @server_cert, align 8, !tbaa !4
  %9 = tail call i32 @OPENSSL_sk_push(ptr noundef %6, ptr noundef %8) #4
  %.not = icmp eq i32 %9, 0
  br i1 %.not, label %14, label %10

10:                                               ; preds = %3
  %11 = load ptr, ptr %7, align 8, !tbaa !25
  %12 = load ptr, ptr @server_cert, align 8, !tbaa !4
  %13 = tail call i32 @OPENSSL_sk_push(ptr noundef %11, ptr noundef %12) #4
  %.not15 = icmp eq i32 %13, 0
  br i1 %.not15, label %14, label %18

14:                                               ; preds = %10, %3
  %15 = getelementptr inbounds nuw i8, ptr %1, i64 8
  %16 = load ptr, ptr %15, align 8, !tbaa !23
  tail call void @OSSL_CMP_CTX_free(ptr noundef %16) #4
  %17 = getelementptr inbounds nuw i8, ptr %1, i64 16
  br label %.sink.split

18:                                               ; preds = %10
  %19 = getelementptr inbounds nuw i8, ptr %1, i64 16
  %20 = load ptr, ptr %19, align 8, !tbaa !24
  %21 = load ptr, ptr %7, align 8, !tbaa !25
  %22 = tail call i32 @ossl_cmp_mock_srv_set1_caPubsOut(ptr noundef %20, ptr noundef %21) #4
  %23 = tail call fastcc i32 @execute_exec_certrequest_ses_test(ptr noundef %1)
  %24 = getelementptr inbounds nuw i8, ptr %1, i64 8
  %25 = load ptr, ptr %24, align 8, !tbaa !23
  tail call void @OSSL_CMP_CTX_free(ptr noundef %25) #4
  br label %.sink.split

.sink.split:                                      ; preds = %14, %18
  %.sink.in = phi ptr [ %19, %18 ], [ %17, %14 ]
  %.013.ph = phi i32 [ %23, %18 ], [ 0, %14 ]
  %.sink = load ptr, ptr %.sink.in, align 8, !tbaa !24
  tail call void @ossl_cmp_mock_srv_free(ptr noundef %.sink) #4
  %26 = load ptr, ptr %7, align 8, !tbaa !25
  tail call void @OPENSSL_sk_free(ptr noundef %26) #4
  tail call void @CRYPTO_free(ptr noundef nonnull %1, ptr noundef nonnull @.str.14, i32 noundef 51) #4
  br label %27

27:                                               ; preds = %.sink.split, %0
  %.013 = phi i32 [ 0, %0 ], [ %.013.ph, %.sink.split ]
  ret i32 %.013
}